target datalayout = "e-m:e-p270:32:32-p271:32:32-p272:64:64-i64:64-i128:128-f80:128-n8:16:32:64-S128"
target triple = "x86_64-pc-linux-gnu"

%struct.enip_conn_key = type { %struct.cip_connection_triad, i32, i32 }
%struct.cip_connection_triad = type { i16, i16, i32 }

; Function Attrs: nounwind null_pointer_is_valid sspstrong uwtable
define internal i32 @enip_conn_hash(ptr noundef %0) #5 {
  %2 = alloca ptr, align 8
  %3 = alloca ptr, align 8
  %4 = alloca i32, align 4
  store ptr %0, ptr %2, align 8
  call void @llvm.lifetime.start.p0(i64 8, ptr %3) #14
  %5 = load ptr, ptr %2, align 8
  store ptr %5, ptr %3, align 8
  call void @llvm.lifetime.start.p0(i64 4, ptr %4) #14
  %6 = load ptr, ptr %3, align 8
  %7 = getelementptr inbounds nuw %struct.enip_conn_key, ptr %6, i32 0, i32 0
  %8 = getelementptr inbounds nuw %struct.cip_connection_triad, ptr %7, i32 0, i32 0
  %9 = load i16, ptr %8, align 4
  %10 = zext i16 %9 to i32
  %11 = load ptr, ptr %3, align 8
  %12 = getelementptr inbounds nuw %struct.enip_conn_key, ptr %11, i32 0, i32 0
  %13 = getelementptr inbounds nuw %struct.cip_connection_triad, ptr %12, i32 0, i32 1
  %14 = load i16, ptr %13, align 2
  %15 = zext i16 %14 to i32
  %16 = add i32 %10, %15
  %17 = load ptr, ptr %3, align 8
  %18 = getelementptr inbounds nuw %struct.enip_conn_key, ptr %17, i32 0, i32 0
  %19 = getelementptr inbounds nuw %struct.cip_connection_triad, ptr %18, i32 0, i32 2
  %20 = load i32, ptr %19, align 4
  %21 = add i32 %16, %20
  store i32 %21, ptr %4, align 4
  %22 = load i32, ptr %4, align 4
  call void @llvm.lifetime.end.p0(i64 4, ptr %4) #14
  call void @llvm.lifetime.end.p0(i64 8, ptr %3) #14
  ret i32 %22
}