; Function Attrs: mustprogress nofree norecurse nosync nounwind null_pointer_is_valid sspstrong willreturn memory(argmem: read) uwtable
define internal i32 @enip_conn_hash(ptr noundef readonly captures(none) %0) #5 {
  %2 = load i16, ptr %0, align 4
  %3 = zext i16 %2 to i32
  %4 = getelementptr inbounds nuw i8, ptr %0, i64 2
  %5 = load i16, ptr %4, align 2
  %6 = zext i16 %5 to i32
  %7 = add nuw nsw i32 %6, %3
  %8 = getelementptr inbounds nuw i8, ptr %0, i64 4
  %9 = load i32, ptr %8, align 4
  %10 = add i32 %7, %9
  ret i32 %10
}